; Function Attrs: mustprogress nofree norecurse nosync nounwind willreturn memory(argmem: write) uwtable
define hidden void @_ZN4cvc58internal6theory11quantifiers12ExampleInferC2EPNS0_11NodeManagerEPNS2_11TermDbSygusE(ptr noundef nonnull align 8 dereferenceable(312) initializes((0, 16), (32, 36), (40, 48)) %0, ptr noundef %1, ptr noundef %2) unnamed_addr #3 align 2 personality ptr @__gxx_personality_v0 {
  store ptr %1, ptr %0, align 8, !tbaa !3
  %4 = getelementptr inbounds nuw i8, ptr %0, i64 8
  store ptr %2, ptr %4, align 8, !tbaa !30
  %5 = getelementptr inbounds nuw i8, ptr %0, i64 32
  store i32 0, ptr %5, align 8, !tbaa !31
  %6 = getelementptr inbounds nuw i8, ptr %0, i64 40
  store ptr null, ptr %6, align 8, !tbaa !32
  %7 = getelementptr inbounds nuw i8, ptr %0, i64 48
  store ptr %5, ptr %7, align 8, !tbaa !33
  %8 = getelementptr inbounds nuw i8, ptr %0, i64 56
  store ptr %5, ptr %8, align 8, !tbaa !34
  %9 = getelementptr inbounds nuw i8, ptr %0, i64 64
  store i64 0, ptr %9, align 8, !tbaa !35
  %10 = getelementptr inbounds nuw i8, ptr %0, i64 80
  store i32 0, ptr %10, align 8, !tbaa !31
  %11 = getelementptr inbounds nuw i8, ptr %0, i64 88
  store ptr null, ptr %11, align 8, !tbaa !32
  %12 = getelementptr inbounds nuw i8, ptr %0, i64 96
  store ptr %10, ptr %12, align 8, !tbaa !33
  %13 = getelementptr inbounds nuw i8, ptr %0, i64 104
  store ptr %10, ptr %13, align 8, !tbaa !34
  %14 = getelementptr inbounds nuw i8, ptr %0, i64 112
  store i64 0, ptr %14, align 8, !tbaa !35
  %15 = getelementptr inbounds nuw i8, ptr %0, i64 128
  store i32 0, ptr %15, align 8, !tbaa !31
  %16 = getelementptr inbounds nuw i8, ptr %0, i64 136
  store ptr null, ptr %16, align 8, !tbaa !32
  %17 = getelementptr inbounds nuw i8, ptr %0, i64 144
  store ptr %15, ptr %17, align 8, !tbaa !33
  %18 = getelementptr inbounds nuw i8, ptr %0, i64 152
  store ptr %15, ptr %18, align 8, !tbaa !34
  %19 = getelementptr inbounds nuw i8, ptr %0, i64 160
  store i64 0, ptr %19, align 8, !tbaa !35
  %20 = getelementptr inbounds nuw i8, ptr %0, i64 176
  store i32 0, ptr %20, align 8, !tbaa !31
  %21 = getelementptr inbounds nuw i8, ptr %0, i64 184
  store ptr null, ptr %21, align 8, !tbaa !32
  %22 = getelementptr inbounds nuw i8, ptr %0, i64 192
  store ptr %20, ptr %22, align 8, !tbaa !33
  %23 = getelementptr inbounds nuw i8, ptr %0, i64 200
  store ptr %20, ptr %23, align 8, !tbaa !34
  %24 = getelementptr inbounds nuw i8, ptr %0, i64 208
  store i64 0, ptr %24, align 8, !tbaa !35
  %25 = getelementptr inbounds nuw i8, ptr %0, i64 224
  store i32 0, ptr %25, align 8, !tbaa !31
  %26 = getelementptr inbounds nuw i8, ptr %0, i64 232
  store ptr null, ptr %26, align 8, !tbaa !32
  %27 = getelementptr inbounds nuw i8, ptr %0, i64 240
  store ptr %25, ptr %27, align 8, !tbaa !33
  %28 = getelementptr inbounds nuw i8, ptr %0, i64 248
  store ptr %25, ptr %28, align 8, !tbaa !34
  %29 = getelementptr inbounds nuw i8, ptr %0, i64 256
  store i64 0, ptr %29, align 8, !tbaa !35
  %30 = getelementptr inbounds nuw i8, ptr %0, i64 272
  store i32 0, ptr %30, align 8, !tbaa !31
  %31 = getelementptr inbounds nuw i8, ptr %0, i64 280
  store ptr null, ptr %31, align 8, !tbaa !32
  %32 = getelementptr inbounds nuw i8, ptr %0, i64 288
  store ptr %30, ptr %32, align 8, !tbaa !33
  %33 = getelementptr inbounds nuw i8, ptr %0, i64 296
  store ptr %30, ptr %33, align 8, !tbaa !34
  %34 = getelementptr inbounds nuw i8, ptr %0, i64 304
  store i64 0, ptr %34, align 8, !tbaa !35
  %35 = getelementptr inbounds nuw i8, ptr %0, i64 16
  store i8 0, ptr %35, align 8, !tbaa !36
  ret void
}